(lp0
F0.0
aF0.0
aF0.3010299956639812
aF0.0
aF0.0
aF0.6989700043360189
aF0.0
aF0.3010299956639812
aF0.3010299956639812
aF0.0
aF1.0413926851582251
aF0.0
aF0.3010299956639812
aF0.3010299956639812
aF0.3010299956639812
aF0.0
aF0.3010299956639812
aF1.0413926851582251
aF0.0
aF0.47712125471966244
aF0.0
aF1.0413926851582251
aF1.0413926851582251
aF1.0413926851582251
aF0.3010299956639812
aF0.0
aF1.0413926851582251
aF0.3010299956639812
aF0.0
aF0.0
aF0.6989700043360189
aF0.6989700043360189
aF0.0
aF0.0
aF0.0
aF0.0
aF0.0
aF0.0
aF1.0413926851582251
aF1.0413926851582251
aF0.0
aF0.0
aF0.47712125471966244
aF0.3010299956639812
aF0.0
aF1.0413926851582251
aF0.3010299956639812
aF0.0
aF0.0
aF1.0413926851582251
aF1.0413926851582251
aF1.0413926851582251
aF1.0413926851582251
aF0.6989700043360189
aF1.0413926851582251
aF1.0413926851582251
aF0.3010299956639812
aF0.0
aF0.3010299956639812
aF0.0
aF0.3010299956639812
aF0.3010299956639812
aF0.0
aF0.6989700043360189
aF1.0413926851582251
aF0.6989700043360189
aF0.0
aF1.0413926851582251
aF0.0
aF0.3010299956639812
aF0.3010299956639812
aF0.6989700043360189
aF0.0
aF0.0
aF0.6989700043360189
aF1.0413926851582251
aF0.6989700043360189
aF0.6989700043360189
aF1.0413926851582251
aF1.0413926851582251
aF1.0413926851582251
aF0.47712125471966244
aF1.0413926851582251
aF1.0413926851582251
aF1.0413926851582251
aF1.0413926851582251
aF0.0
aF0.6989700043360189
aF1.0413926851582251
aF0.3010299956639812
aF1.0413926851582251
aF0.3010299956639812
aF1.0413926851582251
aF0.6989700043360189
aF0.0
aF0.47712125471966244
aF1.0413926851582251
aF0.47712125471966244
aF0.47712125471966244
aF0.47712125471966244
aF0.47712125471966244
aF0.47712125471966244
aF0.47712125471966244
aF0.47712125471966244
aF0.6989700043360189
aF0.3010299956639812
aF0.0
aF0.3010299956639812
aF0.6989700043360189
aF0.0
aF0.6989700043360189
aF0.3010299956639812
aF1.0413926851582251
aF1.0413926851582251
aF0.6989700043360189
aF1.0413926851582251
aF1.0413926851582251
aF0.0
aF0.6989700043360189
aF0.6989700043360189
aF0.6989700043360189
aF0.47712125471966244
aF0.6989700043360189
aF0.6989700043360189
aF0.6989700043360189
aF0.47712125471966244
aF1.0413926851582251
aF0.0
aF1.0413926851582251
aF1.0413926851582251
aF0.0
aF1.0413926851582251
aF1.0413926851582251
aF1.0413926851582251
aF1.0413926851582251
aF0.3010299956639812
aF1.0413926851582251
aF1.0413926851582251
aF1.0413926851582251
aF0.6989700043360189
aF1.0413926851582251
aF0.6989700043360189
aF1.0413926851582251
aF0.6989700043360189
aF1.0413926851582251
aF0.47712125471966244
aF1.0413926851582251
aF1.0413926851582251
aF1.0413926851582251
aF0.6989700043360189
aF0.6989700043360189
aF1.0413926851582251
aF0.6989700043360189
aF1.0413926851582251
aF0.0
aF0.6989700043360189
aF0.3010299956639812
aF0.6989700043360189
aF1.0413926851582251
aF0.0
aF0.6989700043360189
aF1.0413926851582251
aF1.0413926851582251
aF1.0413926851582251
aF0.47712125471966244
aF1.0413926851582251
aF1.0413926851582251
aF1.0413926851582251
aF0.6989700043360189
aF1.0413926851582251
aF1.0413926851582251
aF0.3010299956639812
aF1.0413926851582251
aF0.3010299956639812
aF0.47712125471966244
aF1.0413926851582251
aF0.6989700043360189
aF1.0413926851582251
aF1.0413926851582251
aF1.0413926851582251
aF1.0413926851582251
aF1.0413926851582251
aF1.0413926851582251
aF0.6989700043360189
aF1.0413926851582251
aF1.0413926851582251
aF0.6989700043360189
aF1.0413926851582251
aF1.0413926851582251
aF1.0413926851582251
aF1.0413926851582251
aF0.3010299956639812
aF1.0413926851582251
aF1.0413926851582251
aF1.0413926851582251
aF1.0413926851582251
aF1.0413926851582251
aF1.0413926851582251
aF1.0413926851582251
aF1.0413926851582251
aF0.47712125471966244
aF1.0413926851582251
aF0.47712125471966244
aF0.6989700043360189
aF0.6989700043360189
aF0.6989700043360189
aF1.0413926851582251
aF0.6989700043360189
aF1.0413926851582251
aF0.6989700043360189
aF0.6989700043360189
aF1.0413926851582251
aF1.0413926851582251
aF1.0413926851582251
aF0.3010299956639812
aF0.3010299956639812
aF1.0413926851582251
aF1.0413926851582251
aF1.0413926851582251
aF0.0
aF0.6989700043360189
aF1.0413926851582251
aF1.0413926851582251
aF1.0413926851582251
aF1.0413926851582251
aF1.0413926851582251
aF1.0413926851582251
aF1.0413926851582251
aF1.0413926851582251
aF1.0413926851582251
aF0.47712125471966244
aF1.0413926851582251
aF1.0413926851582251
aF1.0413926851582251
aF1.0413926851582251
aF1.0413926851582251
aF1.0413926851582251
aF1.0413926851582251
aF0.47712125471966244
aF1.0413926851582251
aF1.0413926851582251
aF0.3010299956639812
aF0.47712125471966244
aF0.6989700043360189
aF0.0
aF0.0
aF1.0413926851582251
aF1.0413926851582251
aF1.0413926851582251
aF0.6989700043360189
aF0.6989700043360189
aF1.0413926851582251
aF1.0413926851582251
aF0.47712125471966244
aF0.47712125471966244
aF1.0413926851582251
aF1.0413926851582251
aF1.0413926851582251
aF0.6989700043360189
aF0.6989700043360189
aF1.0413926851582251
aF1.0413926851582251
aF0.6989700043360189
aF1.0413926851582251
aF1.0413926851582251
aF1.0413926851582251
aF1.0413926851582251
aF1.0413926851582251
aF0.47712125471966244
aF1.0413926851582251
aF1.0413926851582251
aF1.0413926851582251
aF1.0413926851582251
aF1.0413926851582251
aF1.0413926851582251
aF1.0413926851582251
aF1.0413926851582251
aF0.0
aF1.0413926851582251
aF1.0413926851582251
aF1.0413926851582251
aF1.0413926851582251
aF1.0413926851582251
aF1.0413926851582251
aF1.0413926851582251
aF1.0413926851582251
aF1.0413926851582251
aF1.0413926851582251
aF1.0413926851582251
aF1.0413926851582251
aF1.0413926851582251
aF1.0413926851582251
aF0.3010299956639812
aF1.0413926851582251
aF1.0413926851582251
aF1.0413926851582251
aF1.0413926851582251
aF1.0413926851582251
aF1.0413926851582251
aF1.0413926851582251
aF1.0413926851582251
aF1.0413926851582251
aF1.0413926851582251
aF1.0413926851582251
a.